; Function Attrs: mustprogress uwtable
define internal void @"_ZNSt17_Function_handlerIFvvEZN4leanL14mk_thread_procERKSt8functionIS0_EmE3$_0E9_M_invokeERKSt9_Any_data"(ptr noundef nonnull readonly align 8 captures(none) dereferenceable(16) %0) #0 align 2 {
  %.val = load ptr, ptr %0, align 8, !tbaa !44
  %2 = load i64, ptr %.val, align 8, !tbaa !42
  tail call void @_ZN4lean17set_max_heartbeatEm(i64 noundef %2)
  %3 = getelementptr inbounds nuw i8, ptr %.val, i64 24
  %4 = load ptr, ptr %3, align 8, !tbaa !12
  %.not.i.i.i.i.i = icmp eq ptr %4, null
  br i1 %.not.i.i.i.i.i, label %5, label %"_ZSt10__invoke_rIvRZN4leanL14mk_thread_procERKSt8functionIFvvEEmE3$_0JEENSt9enable_ifIXsr7is_voidIT_EE5valueES9_E4typeEOT0_DpOT1_.exit"

5:                                                ; preds = %1
  tail call void @_ZSt25__throw_bad_function_callv() #22
  unreachable

"_ZSt10__invoke_rIvRZN4leanL14mk_thread_procERKSt8functionIFvvEEmE3$_0JEENSt9enable_ifIXsr7is_voidIT_EE5valueES9_E4typeEOT0_DpOT1_.exit": ; preds = %1
  %6 = getelementptr inbounds nuw i8, ptr %.val, i64 8
  %7 = getelementptr inbounds nuw i8, ptr %.val, i64 32
  %8 = load ptr, ptr %7, align 8, !tbaa !14
  tail call void %8(ptr noundef nonnull align 8 dereferenceable(32) %6)
  ret void
}